   1               		.file	"main.c"
   2               	__SP_H__ = 0x3e
   3               	__SP_L__ = 0x3d
   4               	__SREG__ = 0x3f
   5               	__tmp_reg__ = 0
   6               	__zero_reg__ = 1
   7               		.text
   8               	.Ltext0:
   9               		.cfi_sections	.debug_frame
  10               		.section	.rodata.Write_Save_Event.str1.1,"aMS",@progbits,1
  11               	.LC0:
  12 0000 5361 7665 		.string	"Save/Write Event"
  12      2F57 7269 
  12      7465 2045 
  12      7665 6E74 
  12      00
  13               	.LC1:
  14 0011 2564 2025 		.string	"%d %d %d %d \r\n"
  14      6420 2564 
  14      2025 6420 
  14      0D0A 00
  15               		.section	.text.Write_Save_Event,"ax",@progbits
  17               	Write_Save_Event:
  18               	.LFB239:
  19               		.file 1 "main.c"
   1:main.c        **** /*
   2:main.c        ****     ChibiOS - Copyright (C) 2006..2018 Giovanni Di Sirio
   3:main.c        **** 
   4:main.c        ****     Licensed under the Apache License, Version 2.0 (the "License");
   5:main.c        ****     you may not use this file except in compliance with the License.
   6:main.c        ****     You may obtain a copy of the License at
   7:main.c        **** 
   8:main.c        ****         http://www.apache.org/licenses/LICENSE-2.0
   9:main.c        **** 
  10:main.c        ****     Unless required by applicable law or agreed to in writing, software
  11:main.c        ****     distributed under the License is distributed on an "AS IS" BASIS,
  12:main.c        ****     WITHOUT WARRANTIES OR CONDITIONS OF ANY KIND, either express or implied.
  13:main.c        ****     See the License for the specific language governing permissions and
  14:main.c        ****     limitations under the   License.
  15:main.c        **** */
  16:main.c        **** 
  17:main.c        **** #include "ch.h"
  18:main.c        **** #include "hal.h"
  19:main.c        **** #include <string.h>
  20:main.c        **** #include <stdio.h>
  21:main.c        **** #include "definitions.h"
  22:main.c        **** 
  23:main.c        **** /* 
  24:main.c        ****   * Thread Write Event 
  25:main.c        **** */
  26:main.c        **** static THD_WORKING_AREA(wa_WriteEvent, 128);
  27:main.c        **** static THD_FUNCTION(Write_Save_Event, arg)
  28:main.c        **** {
  20               		.loc 1 28 0
  21               		.cfi_startproc
  22               	.LVL0:
  23 0000 CF93      		push r28
  24               	.LCFI0:
  25               		.cfi_def_cfa_offset 3
  26               		.cfi_offset 28, -2
  27 0002 DF93      		push r29
  28               	.LCFI1:
  29               		.cfi_def_cfa_offset 4
  30               		.cfi_offset 29, -3
  31 0004 CDB7      		in r28,__SP_L__
  32 0006 DEB7      		in r29,__SP_H__
  33               	.LCFI2:
  34               		.cfi_def_cfa_register 28
  35 0008 2F97      		sbiw r28,15
  36               	.LCFI3:
  37               		.cfi_def_cfa_offset 19
  38 000a 0FB6      		in __tmp_reg__,__SREG__
  39 000c F894      		cli
  40 000e DEBF      		out __SP_H__,r29
  41 0010 0FBE      		out __SREG__,__tmp_reg__
  42 0012 CDBF      		out __SP_L__,r28
  43               	/* prologue: function */
  44               	/* frame size = 15 */
  45               	/* stack size = 17 */
  46               	.L__stack_usage = 17
  47               	.LVL1:
  48               	.LBB4:
  49               	.LBB5:
  50               		.file 2 "/home/joao/Documentos/UFPE/Embarcados/ChibiOS/ChibiOS_21.11.3/os/rt/include/chregistry.h"
   1:/home/joao/Documentos/UFPE/Embarcados/ChibiOS/ChibiOS_21.11.3/os/rt/include/chregistry.h **** /*
   2:/home/joao/Documentos/UFPE/Embarcados/ChibiOS/ChibiOS_21.11.3/os/rt/include/chregistry.h ****     ChibiOS - Copyright (C) 2006,2007,2008,2009,2010,2011,2012,2013,2014,
   3:/home/joao/Documentos/UFPE/Embarcados/ChibiOS/ChibiOS_21.11.3/os/rt/include/chregistry.h ****               2015,2016,2017,2018,2019,2020,2021 Giovanni Di Sirio.
   4:/home/joao/Documentos/UFPE/Embarcados/ChibiOS/ChibiOS_21.11.3/os/rt/include/chregistry.h **** 
   5:/home/joao/Documentos/UFPE/Embarcados/ChibiOS/ChibiOS_21.11.3/os/rt/include/chregistry.h ****     This file is part of ChibiOS.
   6:/home/joao/Documentos/UFPE/Embarcados/ChibiOS/ChibiOS_21.11.3/os/rt/include/chregistry.h **** 
   7:/home/joao/Documentos/UFPE/Embarcados/ChibiOS/ChibiOS_21.11.3/os/rt/include/chregistry.h ****     ChibiOS is free software; you can redistribute it and/or modify
   8:/home/joao/Documentos/UFPE/Embarcados/ChibiOS/ChibiOS_21.11.3/os/rt/include/chregistry.h ****     it under the terms of the GNU General Public License as published by
   9:/home/joao/Documentos/UFPE/Embarcados/ChibiOS/ChibiOS_21.11.3/os/rt/include/chregistry.h ****     the Free Software Foundation version 3 of the License.
  10:/home/joao/Documentos/UFPE/Embarcados/ChibiOS/ChibiOS_21.11.3/os/rt/include/chregistry.h **** 
  11:/home/joao/Documentos/UFPE/Embarcados/ChibiOS/ChibiOS_21.11.3/os/rt/include/chregistry.h ****     ChibiOS is distributed in the hope that it will be useful,
  12:/home/joao/Documentos/UFPE/Embarcados/ChibiOS/ChibiOS_21.11.3/os/rt/include/chregistry.h ****     but WITHOUT ANY WARRANTY; without even the implied warranty of
  13:/home/joao/Documentos/UFPE/Embarcados/ChibiOS/ChibiOS_21.11.3/os/rt/include/chregistry.h ****     MERCHANTABILITY or FITNESS FOR A PARTICULAR PURPOSE.  See the
  14:/home/joao/Documentos/UFPE/Embarcados/ChibiOS/ChibiOS_21.11.3/os/rt/include/chregistry.h ****     GNU General Public License for more details.
  15:/home/joao/Documentos/UFPE/Embarcados/ChibiOS/ChibiOS_21.11.3/os/rt/include/chregistry.h **** 
  16:/home/joao/Documentos/UFPE/Embarcados/ChibiOS/ChibiOS_21.11.3/os/rt/include/chregistry.h ****     You should have received a copy of the GNU General Public License
  17:/home/joao/Documentos/UFPE/Embarcados/ChibiOS/ChibiOS_21.11.3/os/rt/include/chregistry.h ****     along with this program.  If not, see <http://www.gnu.org/licenses/>.
  18:/home/joao/Documentos/UFPE/Embarcados/ChibiOS/ChibiOS_21.11.3/os/rt/include/chregistry.h **** */
  19:/home/joao/Documentos/UFPE/Embarcados/ChibiOS/ChibiOS_21.11.3/os/rt/include/chregistry.h **** 
  20:/home/joao/Documentos/UFPE/Embarcados/ChibiOS/ChibiOS_21.11.3/os/rt/include/chregistry.h **** /**
  21:/home/joao/Documentos/UFPE/Embarcados/ChibiOS/ChibiOS_21.11.3/os/rt/include/chregistry.h ****  * @file    rt/include/chregistry.h
  22:/home/joao/Documentos/UFPE/Embarcados/ChibiOS/ChibiOS_21.11.3/os/rt/include/chregistry.h ****  * @brief   Threads registry macros and structures.
  23:/home/joao/Documentos/UFPE/Embarcados/ChibiOS/ChibiOS_21.11.3/os/rt/include/chregistry.h ****  *
  24:/home/joao/Documentos/UFPE/Embarcados/ChibiOS/ChibiOS_21.11.3/os/rt/include/chregistry.h ****  * @addtogroup registry
  25:/home/joao/Documentos/UFPE/Embarcados/ChibiOS/ChibiOS_21.11.3/os/rt/include/chregistry.h ****  * @{
  26:/home/joao/Documentos/UFPE/Embarcados/ChibiOS/ChibiOS_21.11.3/os/rt/include/chregistry.h ****  */
  27:/home/joao/Documentos/UFPE/Embarcados/ChibiOS/ChibiOS_21.11.3/os/rt/include/chregistry.h **** 
  28:/home/joao/Documentos/UFPE/Embarcados/ChibiOS/ChibiOS_21.11.3/os/rt/include/chregistry.h **** #ifndef CHREGISTRY_H
  29:/home/joao/Documentos/UFPE/Embarcados/ChibiOS/ChibiOS_21.11.3/os/rt/include/chregistry.h **** #define CHREGISTRY_H
  30:/home/joao/Documentos/UFPE/Embarcados/ChibiOS/ChibiOS_21.11.3/os/rt/include/chregistry.h **** 
  31:/home/joao/Documentos/UFPE/Embarcados/ChibiOS/ChibiOS_21.11.3/os/rt/include/chregistry.h **** #if (CH_CFG_USE_REGISTRY == TRUE) || defined(__DOXYGEN__)
  32:/home/joao/Documentos/UFPE/Embarcados/ChibiOS/ChibiOS_21.11.3/os/rt/include/chregistry.h **** 
  33:/home/joao/Documentos/UFPE/Embarcados/ChibiOS/ChibiOS_21.11.3/os/rt/include/chregistry.h **** /*===========================================================================*/
  34:/home/joao/Documentos/UFPE/Embarcados/ChibiOS/ChibiOS_21.11.3/os/rt/include/chregistry.h **** /* Module constants.                                                         */
  35:/home/joao/Documentos/UFPE/Embarcados/ChibiOS/ChibiOS_21.11.3/os/rt/include/chregistry.h **** /*===========================================================================*/
  36:/home/joao/Documentos/UFPE/Embarcados/ChibiOS/ChibiOS_21.11.3/os/rt/include/chregistry.h **** 
  37:/home/joao/Documentos/UFPE/Embarcados/ChibiOS/ChibiOS_21.11.3/os/rt/include/chregistry.h **** /*===========================================================================*/
  38:/home/joao/Documentos/UFPE/Embarcados/ChibiOS/ChibiOS_21.11.3/os/rt/include/chregistry.h **** /* Module pre-compile time settings.                                         */
  39:/home/joao/Documentos/UFPE/Embarcados/ChibiOS/ChibiOS_21.11.3/os/rt/include/chregistry.h **** /*===========================================================================*/
  40:/home/joao/Documentos/UFPE/Embarcados/ChibiOS/ChibiOS_21.11.3/os/rt/include/chregistry.h **** 
  41:/home/joao/Documentos/UFPE/Embarcados/ChibiOS/ChibiOS_21.11.3/os/rt/include/chregistry.h **** /*===========================================================================*/
  42:/home/joao/Documentos/UFPE/Embarcados/ChibiOS/ChibiOS_21.11.3/os/rt/include/chregistry.h **** /* Derived constants and error checks.                                       */
  43:/home/joao/Documentos/UFPE/Embarcados/ChibiOS/ChibiOS_21.11.3/os/rt/include/chregistry.h **** /*===========================================================================*/
  44:/home/joao/Documentos/UFPE/Embarcados/ChibiOS/ChibiOS_21.11.3/os/rt/include/chregistry.h **** 
  45:/home/joao/Documentos/UFPE/Embarcados/ChibiOS/ChibiOS_21.11.3/os/rt/include/chregistry.h **** /*===========================================================================*/
  46:/home/joao/Documentos/UFPE/Embarcados/ChibiOS/ChibiOS_21.11.3/os/rt/include/chregistry.h **** /* Module data structures and types.                                         */
  47:/home/joao/Documentos/UFPE/Embarcados/ChibiOS/ChibiOS_21.11.3/os/rt/include/chregistry.h **** /*===========================================================================*/
  48:/home/joao/Documentos/UFPE/Embarcados/ChibiOS/ChibiOS_21.11.3/os/rt/include/chregistry.h **** 
  49:/home/joao/Documentos/UFPE/Embarcados/ChibiOS/ChibiOS_21.11.3/os/rt/include/chregistry.h **** /**
  50:/home/joao/Documentos/UFPE/Embarcados/ChibiOS/ChibiOS_21.11.3/os/rt/include/chregistry.h ****  * @brief   ChibiOS/RT memory signature record.
  51:/home/joao/Documentos/UFPE/Embarcados/ChibiOS/ChibiOS_21.11.3/os/rt/include/chregistry.h ****  */
  52:/home/joao/Documentos/UFPE/Embarcados/ChibiOS/ChibiOS_21.11.3/os/rt/include/chregistry.h **** typedef struct {
  53:/home/joao/Documentos/UFPE/Embarcados/ChibiOS/ChibiOS_21.11.3/os/rt/include/chregistry.h ****   char      identifier[4];          /**< @brief Always set to "main".       */
  54:/home/joao/Documentos/UFPE/Embarcados/ChibiOS/ChibiOS_21.11.3/os/rt/include/chregistry.h ****   uint8_t   zero;                   /**< @brief Must be zero.               */
  55:/home/joao/Documentos/UFPE/Embarcados/ChibiOS/ChibiOS_21.11.3/os/rt/include/chregistry.h ****   uint8_t   size;                   /**< @brief Size of this structure.     */
  56:/home/joao/Documentos/UFPE/Embarcados/ChibiOS/ChibiOS_21.11.3/os/rt/include/chregistry.h ****   uint16_t  version;                /**< @brief Encoded ChibiOS/RT version. */
  57:/home/joao/Documentos/UFPE/Embarcados/ChibiOS/ChibiOS_21.11.3/os/rt/include/chregistry.h ****   uint8_t   ptrsize;                /**< @brief Size of a pointer.          */
  58:/home/joao/Documentos/UFPE/Embarcados/ChibiOS/ChibiOS_21.11.3/os/rt/include/chregistry.h ****   uint8_t   timesize;               /**< @brief Size of a @p systime_t.     */
  59:/home/joao/Documentos/UFPE/Embarcados/ChibiOS/ChibiOS_21.11.3/os/rt/include/chregistry.h ****   uint8_t   threadsize;             /**< @brief Size of a @p thread_t.      */
  60:/home/joao/Documentos/UFPE/Embarcados/ChibiOS/ChibiOS_21.11.3/os/rt/include/chregistry.h ****   uint8_t   off_prio;               /**< @brief Offset of @p prio field.    */
  61:/home/joao/Documentos/UFPE/Embarcados/ChibiOS/ChibiOS_21.11.3/os/rt/include/chregistry.h ****   uint8_t   off_ctx;                /**< @brief Offset of @p ctx field.     */
  62:/home/joao/Documentos/UFPE/Embarcados/ChibiOS/ChibiOS_21.11.3/os/rt/include/chregistry.h ****   uint8_t   off_newer;              /**< @brief Offset of @p newer field.   */
  63:/home/joao/Documentos/UFPE/Embarcados/ChibiOS/ChibiOS_21.11.3/os/rt/include/chregistry.h ****   uint8_t   off_older;              /**< @brief Offset of @p older field.   */
  64:/home/joao/Documentos/UFPE/Embarcados/ChibiOS/ChibiOS_21.11.3/os/rt/include/chregistry.h ****   uint8_t   off_name;               /**< @brief Offset of @p name field.    */
  65:/home/joao/Documentos/UFPE/Embarcados/ChibiOS/ChibiOS_21.11.3/os/rt/include/chregistry.h ****   uint8_t   off_stklimit;           /**< @brief Offset of @p stklimit field.*/
  66:/home/joao/Documentos/UFPE/Embarcados/ChibiOS/ChibiOS_21.11.3/os/rt/include/chregistry.h ****   uint8_t   off_state;              /**< @brief Offset of @p state field.   */
  67:/home/joao/Documentos/UFPE/Embarcados/ChibiOS/ChibiOS_21.11.3/os/rt/include/chregistry.h ****   uint8_t   off_flags;              /**< @brief Offset of @p flags field.   */
  68:/home/joao/Documentos/UFPE/Embarcados/ChibiOS/ChibiOS_21.11.3/os/rt/include/chregistry.h ****   uint8_t   off_refs;               /**< @brief Offset of @p refs field.    */
  69:/home/joao/Documentos/UFPE/Embarcados/ChibiOS/ChibiOS_21.11.3/os/rt/include/chregistry.h ****   uint8_t   off_preempt;            /**< @brief Offset of @p ticks field.   */
  70:/home/joao/Documentos/UFPE/Embarcados/ChibiOS/ChibiOS_21.11.3/os/rt/include/chregistry.h ****   uint8_t   off_time;               /**< @brief Offset of @p time field.    */
  71:/home/joao/Documentos/UFPE/Embarcados/ChibiOS/ChibiOS_21.11.3/os/rt/include/chregistry.h ****   uint8_t   off_reserved[4];
  72:/home/joao/Documentos/UFPE/Embarcados/ChibiOS/ChibiOS_21.11.3/os/rt/include/chregistry.h ****   uint8_t   intctxsize;             /**< @brief Size of a @p port_intctx.   */
  73:/home/joao/Documentos/UFPE/Embarcados/ChibiOS/ChibiOS_21.11.3/os/rt/include/chregistry.h ****   uint8_t   intervalsize;           /**< @brief Size of a @p sysinterval_t. */
  74:/home/joao/Documentos/UFPE/Embarcados/ChibiOS/ChibiOS_21.11.3/os/rt/include/chregistry.h ****   uint8_t   instancesnum;           /**< @brief Number of instances.        */
  75:/home/joao/Documentos/UFPE/Embarcados/ChibiOS/ChibiOS_21.11.3/os/rt/include/chregistry.h ****   uint8_t   off_sys_state;          /**< @brief Offset of @p state field.   */
  76:/home/joao/Documentos/UFPE/Embarcados/ChibiOS/ChibiOS_21.11.3/os/rt/include/chregistry.h ****   uint8_t   off_sys_instances;      /**< @brief Offset of @p instances array
  77:/home/joao/Documentos/UFPE/Embarcados/ChibiOS/ChibiOS_21.11.3/os/rt/include/chregistry.h ****                                                 field.                      */
  78:/home/joao/Documentos/UFPE/Embarcados/ChibiOS/ChibiOS_21.11.3/os/rt/include/chregistry.h ****   uint8_t   off_sys_reglist;        /**< @brief Offset of @p reglist field. */
  79:/home/joao/Documentos/UFPE/Embarcados/ChibiOS/ChibiOS_21.11.3/os/rt/include/chregistry.h ****   uint8_t   off_sys_rfcu;           /**< @brief Offset of @p rfcu field.    */
  80:/home/joao/Documentos/UFPE/Embarcados/ChibiOS/ChibiOS_21.11.3/os/rt/include/chregistry.h ****   uint8_t   off_sys_reserved[4];
  81:/home/joao/Documentos/UFPE/Embarcados/ChibiOS/ChibiOS_21.11.3/os/rt/include/chregistry.h ****   uint8_t   off_inst_rlist_current; /**< @brief Offset of @p rlist.current
  82:/home/joao/Documentos/UFPE/Embarcados/ChibiOS/ChibiOS_21.11.3/os/rt/include/chregistry.h ****                                                 field.                      */
  83:/home/joao/Documentos/UFPE/Embarcados/ChibiOS/ChibiOS_21.11.3/os/rt/include/chregistry.h ****   uint8_t   off_inst_rlist;         /**< @brief Offset of @p rlist field.   */
  84:/home/joao/Documentos/UFPE/Embarcados/ChibiOS/ChibiOS_21.11.3/os/rt/include/chregistry.h ****   uint8_t   off_inst_vtlist;        /**< @brief Offset of @p vtlist field.  */
  85:/home/joao/Documentos/UFPE/Embarcados/ChibiOS/ChibiOS_21.11.3/os/rt/include/chregistry.h ****   uint8_t   off_inst_reglist;       /**< @brief Offset of @p reglist field. */
  86:/home/joao/Documentos/UFPE/Embarcados/ChibiOS/ChibiOS_21.11.3/os/rt/include/chregistry.h ****   uint8_t   off_inst_core_id;       /**< @brief Offset of @p core_id field. */
  87:/home/joao/Documentos/UFPE/Embarcados/ChibiOS/ChibiOS_21.11.3/os/rt/include/chregistry.h ****   uint8_t   off_inst_rfcu;          /**< @brief Offset of @p rfcu field.    */
  88:/home/joao/Documentos/UFPE/Embarcados/ChibiOS/ChibiOS_21.11.3/os/rt/include/chregistry.h **** } chdebug_t;
  89:/home/joao/Documentos/UFPE/Embarcados/ChibiOS/ChibiOS_21.11.3/os/rt/include/chregistry.h **** 
  90:/home/joao/Documentos/UFPE/Embarcados/ChibiOS/ChibiOS_21.11.3/os/rt/include/chregistry.h **** /*===========================================================================*/
  91:/home/joao/Documentos/UFPE/Embarcados/ChibiOS/ChibiOS_21.11.3/os/rt/include/chregistry.h **** /* Module macros.                                                            */
  92:/home/joao/Documentos/UFPE/Embarcados/ChibiOS/ChibiOS_21.11.3/os/rt/include/chregistry.h **** /*===========================================================================*/
  93:/home/joao/Documentos/UFPE/Embarcados/ChibiOS/ChibiOS_21.11.3/os/rt/include/chregistry.h **** 
  94:/home/joao/Documentos/UFPE/Embarcados/ChibiOS/ChibiOS_21.11.3/os/rt/include/chregistry.h **** /**
  95:/home/joao/Documentos/UFPE/Embarcados/ChibiOS/ChibiOS_21.11.3/os/rt/include/chregistry.h ****  * @brief   Access to the registry list header.
  96:/home/joao/Documentos/UFPE/Embarcados/ChibiOS/ChibiOS_21.11.3/os/rt/include/chregistry.h ****  */
  97:/home/joao/Documentos/UFPE/Embarcados/ChibiOS/ChibiOS_21.11.3/os/rt/include/chregistry.h **** #if (CH_CFG_SMP_MODE == TRUE) || defined(__DOXYGEN__)
  98:/home/joao/Documentos/UFPE/Embarcados/ChibiOS/ChibiOS_21.11.3/os/rt/include/chregistry.h **** #define REG_HEADER(oip) (&ch_system.reglist.queue)
  99:/home/joao/Documentos/UFPE/Embarcados/ChibiOS/ChibiOS_21.11.3/os/rt/include/chregistry.h **** #else
 100:/home/joao/Documentos/UFPE/Embarcados/ChibiOS/ChibiOS_21.11.3/os/rt/include/chregistry.h **** #define REG_HEADER(oip) (&(oip)->reglist.queue)
 101:/home/joao/Documentos/UFPE/Embarcados/ChibiOS/ChibiOS_21.11.3/os/rt/include/chregistry.h **** #endif
 102:/home/joao/Documentos/UFPE/Embarcados/ChibiOS/ChibiOS_21.11.3/os/rt/include/chregistry.h **** 
 103:/home/joao/Documentos/UFPE/Embarcados/ChibiOS/ChibiOS_21.11.3/os/rt/include/chregistry.h **** /**
 104:/home/joao/Documentos/UFPE/Embarcados/ChibiOS/ChibiOS_21.11.3/os/rt/include/chregistry.h ****  * @brief   Removes a thread from the registry list.
 105:/home/joao/Documentos/UFPE/Embarcados/ChibiOS/ChibiOS_21.11.3/os/rt/include/chregistry.h ****  * @note    This macro is not meant for use in application code.
 106:/home/joao/Documentos/UFPE/Embarcados/ChibiOS/ChibiOS_21.11.3/os/rt/include/chregistry.h ****  *
 107:/home/joao/Documentos/UFPE/Embarcados/ChibiOS/ChibiOS_21.11.3/os/rt/include/chregistry.h ****  * @param[in] tp        thread to remove from the registry
 108:/home/joao/Documentos/UFPE/Embarcados/ChibiOS/ChibiOS_21.11.3/os/rt/include/chregistry.h ****  */
 109:/home/joao/Documentos/UFPE/Embarcados/ChibiOS/ChibiOS_21.11.3/os/rt/include/chregistry.h **** #define REG_REMOVE(tp) (void) ch_queue_dequeue(&(tp)->rqueue)
 110:/home/joao/Documentos/UFPE/Embarcados/ChibiOS/ChibiOS_21.11.3/os/rt/include/chregistry.h **** 
 111:/home/joao/Documentos/UFPE/Embarcados/ChibiOS/ChibiOS_21.11.3/os/rt/include/chregistry.h **** /**
 112:/home/joao/Documentos/UFPE/Embarcados/ChibiOS/ChibiOS_21.11.3/os/rt/include/chregistry.h ****  * @brief   Adds a thread to the registry list.
 113:/home/joao/Documentos/UFPE/Embarcados/ChibiOS/ChibiOS_21.11.3/os/rt/include/chregistry.h ****  * @note    This macro is not meant for use in application code.
 114:/home/joao/Documentos/UFPE/Embarcados/ChibiOS/ChibiOS_21.11.3/os/rt/include/chregistry.h ****  *
 115:/home/joao/Documentos/UFPE/Embarcados/ChibiOS/ChibiOS_21.11.3/os/rt/include/chregistry.h ****  * @param[in] oip       pointer to the OS instance
 116:/home/joao/Documentos/UFPE/Embarcados/ChibiOS/ChibiOS_21.11.3/os/rt/include/chregistry.h ****  * @param[in] tp        thread to add to the registry
 117:/home/joao/Documentos/UFPE/Embarcados/ChibiOS/ChibiOS_21.11.3/os/rt/include/chregistry.h ****  */
 118:/home/joao/Documentos/UFPE/Embarcados/ChibiOS/ChibiOS_21.11.3/os/rt/include/chregistry.h **** #define REG_INSERT(oip, tp) ch_queue_insert(REG_HEADER(oip), &(tp)->rqueue)
 119:/home/joao/Documentos/UFPE/Embarcados/ChibiOS/ChibiOS_21.11.3/os/rt/include/chregistry.h **** 
 120:/home/joao/Documentos/UFPE/Embarcados/ChibiOS/ChibiOS_21.11.3/os/rt/include/chregistry.h **** /*===========================================================================*/
 121:/home/joao/Documentos/UFPE/Embarcados/ChibiOS/ChibiOS_21.11.3/os/rt/include/chregistry.h **** /* External declarations.                                                    */
 122:/home/joao/Documentos/UFPE/Embarcados/ChibiOS/ChibiOS_21.11.3/os/rt/include/chregistry.h **** /*===========================================================================*/
 123:/home/joao/Documentos/UFPE/Embarcados/ChibiOS/ChibiOS_21.11.3/os/rt/include/chregistry.h **** 
 124:/home/joao/Documentos/UFPE/Embarcados/ChibiOS/ChibiOS_21.11.3/os/rt/include/chregistry.h **** #ifdef __cplusplus
 125:/home/joao/Documentos/UFPE/Embarcados/ChibiOS/ChibiOS_21.11.3/os/rt/include/chregistry.h **** extern "C" {
 126:/home/joao/Documentos/UFPE/Embarcados/ChibiOS/ChibiOS_21.11.3/os/rt/include/chregistry.h **** #endif
 127:/home/joao/Documentos/UFPE/Embarcados/ChibiOS/ChibiOS_21.11.3/os/rt/include/chregistry.h ****   extern ROMCONST chdebug_t ch_debug;
 128:/home/joao/Documentos/UFPE/Embarcados/ChibiOS/ChibiOS_21.11.3/os/rt/include/chregistry.h ****   thread_t *chRegFirstThread(void);
 129:/home/joao/Documentos/UFPE/Embarcados/ChibiOS/ChibiOS_21.11.3/os/rt/include/chregistry.h ****   thread_t *chRegNextThread(thread_t *tp);
 130:/home/joao/Documentos/UFPE/Embarcados/ChibiOS/ChibiOS_21.11.3/os/rt/include/chregistry.h ****   thread_t *chRegFindThreadByName(const char *name);
 131:/home/joao/Documentos/UFPE/Embarcados/ChibiOS/ChibiOS_21.11.3/os/rt/include/chregistry.h ****   thread_t *chRegFindThreadByPointer(thread_t *tp);
 132:/home/joao/Documentos/UFPE/Embarcados/ChibiOS/ChibiOS_21.11.3/os/rt/include/chregistry.h ****   thread_t *chRegFindThreadByWorkingArea(stkalign_t *wa);
 133:/home/joao/Documentos/UFPE/Embarcados/ChibiOS/ChibiOS_21.11.3/os/rt/include/chregistry.h **** #ifdef __cplusplus
 134:/home/joao/Documentos/UFPE/Embarcados/ChibiOS/ChibiOS_21.11.3/os/rt/include/chregistry.h **** }
 135:/home/joao/Documentos/UFPE/Embarcados/ChibiOS/ChibiOS_21.11.3/os/rt/include/chregistry.h **** #endif
 136:/home/joao/Documentos/UFPE/Embarcados/ChibiOS/ChibiOS_21.11.3/os/rt/include/chregistry.h **** 
 137:/home/joao/Documentos/UFPE/Embarcados/ChibiOS/ChibiOS_21.11.3/os/rt/include/chregistry.h **** #endif /* CH_CFG_USE_REGISTRY == TRUE */
 138:/home/joao/Documentos/UFPE/Embarcados/ChibiOS/ChibiOS_21.11.3/os/rt/include/chregistry.h **** 
 139:/home/joao/Documentos/UFPE/Embarcados/ChibiOS/ChibiOS_21.11.3/os/rt/include/chregistry.h **** /*===========================================================================*/
 140:/home/joao/Documentos/UFPE/Embarcados/ChibiOS/ChibiOS_21.11.3/os/rt/include/chregistry.h **** /* Module inline functions.                                                  */
 141:/home/joao/Documentos/UFPE/Embarcados/ChibiOS/ChibiOS_21.11.3/os/rt/include/chregistry.h **** /*===========================================================================*/
 142:/home/joao/Documentos/UFPE/Embarcados/ChibiOS/ChibiOS_21.11.3/os/rt/include/chregistry.h **** 
 143:/home/joao/Documentos/UFPE/Embarcados/ChibiOS/ChibiOS_21.11.3/os/rt/include/chregistry.h **** /**
 144:/home/joao/Documentos/UFPE/Embarcados/ChibiOS/ChibiOS_21.11.3/os/rt/include/chregistry.h ****  * @brief   Initializes a registry.
 145:/home/joao/Documentos/UFPE/Embarcados/ChibiOS/ChibiOS_21.11.3/os/rt/include/chregistry.h ****  * @note    Internal use only.
 146:/home/joao/Documentos/UFPE/Embarcados/ChibiOS/ChibiOS_21.11.3/os/rt/include/chregistry.h ****  *
 147:/home/joao/Documentos/UFPE/Embarcados/ChibiOS/ChibiOS_21.11.3/os/rt/include/chregistry.h ****  * @param[out] rp       pointer to a @p registry_t structure
 148:/home/joao/Documentos/UFPE/Embarcados/ChibiOS/ChibiOS_21.11.3/os/rt/include/chregistry.h ****  *
 149:/home/joao/Documentos/UFPE/Embarcados/ChibiOS/ChibiOS_21.11.3/os/rt/include/chregistry.h ****  * @init
 150:/home/joao/Documentos/UFPE/Embarcados/ChibiOS/ChibiOS_21.11.3/os/rt/include/chregistry.h ****  */
 151:/home/joao/Documentos/UFPE/Embarcados/ChibiOS/ChibiOS_21.11.3/os/rt/include/chregistry.h **** static inline void __reg_object_init(registry_t *rp) {
 152:/home/joao/Documentos/UFPE/Embarcados/ChibiOS/ChibiOS_21.11.3/os/rt/include/chregistry.h **** 
 153:/home/joao/Documentos/UFPE/Embarcados/ChibiOS/ChibiOS_21.11.3/os/rt/include/chregistry.h ****   ch_queue_init(&rp->queue);
 154:/home/joao/Documentos/UFPE/Embarcados/ChibiOS/ChibiOS_21.11.3/os/rt/include/chregistry.h **** }
 155:/home/joao/Documentos/UFPE/Embarcados/ChibiOS/ChibiOS_21.11.3/os/rt/include/chregistry.h **** 
 156:/home/joao/Documentos/UFPE/Embarcados/ChibiOS/ChibiOS_21.11.3/os/rt/include/chregistry.h **** /**
 157:/home/joao/Documentos/UFPE/Embarcados/ChibiOS/ChibiOS_21.11.3/os/rt/include/chregistry.h ****  * @brief   Sets the current thread name.
 158:/home/joao/Documentos/UFPE/Embarcados/ChibiOS/ChibiOS_21.11.3/os/rt/include/chregistry.h ****  * @pre     This function only stores the pointer to the name if the option
 159:/home/joao/Documentos/UFPE/Embarcados/ChibiOS/ChibiOS_21.11.3/os/rt/include/chregistry.h ****  *          @p CH_CFG_USE_REGISTRY is enabled else no action is performed.
 160:/home/joao/Documentos/UFPE/Embarcados/ChibiOS/ChibiOS_21.11.3/os/rt/include/chregistry.h ****  *
 161:/home/joao/Documentos/UFPE/Embarcados/ChibiOS/ChibiOS_21.11.3/os/rt/include/chregistry.h ****  * @param[in] name      thread name as a zero terminated string
 162:/home/joao/Documentos/UFPE/Embarcados/ChibiOS/ChibiOS_21.11.3/os/rt/include/chregistry.h ****  *
 163:/home/joao/Documentos/UFPE/Embarcados/ChibiOS/ChibiOS_21.11.3/os/rt/include/chregistry.h ****  * @api
 164:/home/joao/Documentos/UFPE/Embarcados/ChibiOS/ChibiOS_21.11.3/os/rt/include/chregistry.h ****  */
 165:/home/joao/Documentos/UFPE/Embarcados/ChibiOS/ChibiOS_21.11.3/os/rt/include/chregistry.h **** static inline void chRegSetThreadName(const char *name) {
 166:/home/joao/Documentos/UFPE/Embarcados/ChibiOS/ChibiOS_21.11.3/os/rt/include/chregistry.h **** 
 167:/home/joao/Documentos/UFPE/Embarcados/ChibiOS/ChibiOS_21.11.3/os/rt/include/chregistry.h **** #if CH_CFG_USE_REGISTRY == TRUE
 168:/home/joao/Documentos/UFPE/Embarcados/ChibiOS/ChibiOS_21.11.3/os/rt/include/chregistry.h ****   __sch_get_currthread()->name = name;
  51               		.loc 2 168 0
  52 0014 E091 0000 		lds r30,ch0+5
  53 0018 F091 0000 		lds r31,ch0+5+1
  54 001c 80E0      		ldi r24,lo8(.LC0)
  55 001e 90E0      		ldi r25,hi8(.LC0)
  56               	.LVL2:
  57 0020 9687      		std Z+14,r25
  58 0022 8587      		std Z+13,r24
  59 0024 CE01      		movw r24,r28
  60 0026 0196      		adiw r24,1
  61 0028 7C01      		movw r14,r24
  62               	.LBE5:
  63               	.LBE4:
  29:main.c        ****   char msg[15];
  30:main.c        ****   chRegSetThreadName("Save/Write Event");
  31:main.c        ****   while (1)
  32:main.c        ****   {
  33:main.c        ****     palTogglePad(IOPORT2, PORTB_LED1);
  64               		.loc 1 33 0
  65 002a 80E2      		ldi r24,lo8(32)
  66 002c C82E      		mov r12,r24
  34:main.c        ****     
  35:main.c        ****     snprintf(msg, 15, "%d %d %d %d \r\n", 
  67               		.loc 1 35 0
  68 002e 00E0      		ldi r16,lo8(.LC1)
  69 0030 10E0      		ldi r17,hi8(.LC1)
  70 0032 9FE0      		ldi r25,lo8(15)
  71 0034 D92E      		mov r13,r25
  72               	.L2:
  33:main.c        ****     
  73               		.loc 1 33 0 discriminator 1
  74 0036 85B1      		in r24,0x5
  75 0038 8C25      		eor r24,r12
  76 003a 85B9      		out 0x5,r24
  36:main.c        ****     palReadPad(IOPORT2, PEDESTRE), palReadPad(IOPORT2, CARRO_SECUNDARIA), 
  37:main.c        ****     palReadPad(IOPORT2, AMBULANCIA_PRINCIPAL), palReadPad(IOPORT2, AMBULANCIA_SECUNDARIA));
  77               		.loc 1 37 0 discriminator 1
  78 003c 33B1      		in r19,0x3
  79 003e 23B1      		in r18,0x3
  36:main.c        ****     palReadPad(IOPORT2, PEDESTRE), palReadPad(IOPORT2, CARRO_SECUNDARIA), 
  80               		.loc 1 36 0 discriminator 1
  81 0040 93B1      		in r25,0x3
  82 0042 83B1      		in r24,0x3
  35:main.c        ****     palReadPad(IOPORT2, PEDESTRE), palReadPad(IOPORT2, CARRO_SECUNDARIA), 
  83               		.loc 1 35 0 discriminator 1
  84 0044 3695      		lsr r19
  85 0046 3170      		andi r19,1
  86 0048 1F92      		push __zero_reg__
  87 004a 3F93      		push r19
  88 004c 22FB      		bst r18,2
  89 004e 2227      		clr r18
  90 0050 20F9      		bld r18,0
  91 0052 1F92      		push __zero_reg__
  92 0054 2F93      		push r18
  93 0056 93FB      		bst r25,3
  94 0058 9927      		clr r25
  95 005a 90F9      		bld r25,0
  96 005c 1F92      		push __zero_reg__
  97 005e 9F93      		push r25
  98 0060 8295      		swap r24
  99 0062 8170      		andi r24,1
 100 0064 1F92      		push __zero_reg__
 101 0066 8F93      		push r24
 102 0068 1F93      		push r17
 103 006a 0F93      		push r16
 104 006c 1F92      		push __zero_reg__
 105 006e DF92      		push r13
 106 0070 FF92      		push r15
 107 0072 EF92      		push r14
 108 0074 0E94 0000 		call snprintf
 109               	.LVL3:
  38:main.c        **** 
  39:main.c        ****     sdWrite(&SD1, msg, 15);
 110               		.loc 1 39 0 discriminator 1
 111 0078 2FEF      		ldi r18,lo8(-1)
 112 007a 3FEF      		ldi r19,lo8(-1)
 113 007c 4FE0      		ldi r20,lo8(15)
 114 007e 50E0      		ldi r21,0
 115 0080 B701      		movw r22,r14
 116 0082 80E0      		ldi r24,lo8(SD1+23)
 117 0084 90E0      		ldi r25,hi8(SD1+23)
 118 0086 0E94 0000 		call oqWriteTimeout
 119               	.LVL4:
  40:main.c        ****     
  41:main.c        ****     chThdSleepMilliseconds(100);
 120               		.loc 1 41 0 discriminator 1
 121 008a 8BE1      		ldi r24,lo8(27)
 122 008c 96E0      		ldi r25,lo8(6)
 123 008e 0E94 0000 		call chThdSleep
 124               	.LVL5:
 125 0092 0FB6      		in __tmp_reg__,__SREG__
 126 0094 F894      		cli
 127 0096 DEBF      		out __SP_H__,r29
 128 0098 0FBE      		out __SREG__,__tmp_reg__
 129 009a CDBF      		out __SP_L__,r28
 130 009c 00C0      		rjmp .L2
 131               		.cfi_endproc
 132               	.LFE239:
 134               		.section	.text.startup.main,"ax",@progbits
 135               	.global	main
 137               	main:
 138               	.LFB242:
  42:main.c        ****   }
  43:main.c        **** }
  44:main.c        **** 
  45:main.c        **** /* 
  46:main.c        ****   * Thread Read Event
  47:main.c        **** */
  48:main.c        **** static THD_WORKING_AREA(wa_ReadEvent, 128);
  49:main.c        **** static THD_FUNCTION(Read_Collect_Event, arg)
  50:main.c        **** {
  51:main.c        ****   char msg[] = "Lendo eventos\r\n";
  52:main.c        **** 
  53:main.c        ****   chRegSetThreadName("Read/Collect Event");
  54:main.c        ****   while (1)
  55:main.c        ****   {
  56:main.c        ****     sdWrite(&SD1, msg, sizeof(msg));
  57:main.c        ****     chThdSleepMilliseconds(1);
  58:main.c        ****   }
  59:main.c        **** }
  60:main.c        **** 
  61:main.c        **** /* 
  62:main.c        ****   * Thread Process Event 
  63:main.c        **** */
  64:main.c        **** static THD_WORKING_AREA(wa_ProcessEvent, 128);
  65:main.c        **** static THD_FUNCTION(ProcessEvent, arg)
  66:main.c        **** {
  67:main.c        ****   char msg[] = "Maquina de estado\r\n";
  68:main.c        **** 
  69:main.c        ****   chRegSetThreadName("Process Event");
  70:main.c        ****   while (1)
  71:main.c        ****   {
  72:main.c        ****     sdWrite(&SD1, msg, sizeof(msg));
  73:main.c        ****     chThdSleepMilliseconds(100);
  74:main.c        ****   }
  75:main.c        **** }
  76:main.c        **** 
  77:main.c        **** /*
  78:main.c        ****  * Application entry point.
  79:main.c        ****  */
  80:main.c        **** int main(void) 
  81:main.c        **** {
 139               		.loc 1 81 0
 140               		.cfi_startproc
 141 0000 CF93      		push r28
 142               	.LCFI4:
 143               		.cfi_def_cfa_offset 3
 144               		.cfi_offset 28, -2
 145 0002 DF93      		push r29
 146               	.LCFI5:
 147               		.cfi_def_cfa_offset 4
 148               		.cfi_offset 29, -3
 149 0004 00D0      		rcall .
 150 0006 1F92      		push __zero_reg__
 151               	.LCFI6:
 152               		.cfi_def_cfa_offset 7
 153 0008 CDB7      		in r28,__SP_L__
 154 000a DEB7      		in r29,__SP_H__
 155               	.LCFI7:
 156               		.cfi_def_cfa_register 28
 157               	/* prologue: function */
 158               	/* frame size = 3 */
 159               	/* stack size = 5 */
 160               	.L__stack_usage = 5
 161               	.LVL6:
  82:main.c        ****   thread_t *thd0 = 0, *thd1 = 0, *thd2 = 0;
  83:main.c        ****   SerialConfig Serial_Configuration = {.sc_brr = UBRR2x(115200), .sc_bits_per_char = USART_CHAR_SIZ
 162               		.loc 1 83 0
 163 000c 80E1      		ldi r24,lo8(16)
 164 000e 90E0      		ldi r25,0
 165 0010 9A83      		std Y+2,r25
 166 0012 8983      		std Y+1,r24
 167 0014 83E0      		ldi r24,lo8(3)
 168 0016 8B83      		std Y+3,r24
  84:main.c        **** 
  85:main.c        ****   /*
  86:main.c        ****    * System initializations.
  87:main.c        ****    * - HAL initialization, this also initializes the configured device drivers
  88:main.c        ****    *   and performs the board-specific initializations.
  89:main.c        ****    * - Kernel initialization, the main() function becomes a thread and the
  90:main.c        ****    *   RTOS is active.
  91:main.c        ****    */
  92:main.c        ****   halInit();
 169               		.loc 1 92 0
 170 0018 0E94 0000 		call halInit
 171               	.LVL7:
  93:main.c        ****   chSysInit();
 172               		.loc 1 93 0
 173 001c 0E94 0000 		call chSysInit
 174               	.LVL8:
  94:main.c        **** 
  95:main.c        ****   sdStart(&SD1, &Serial_Configuration);
 175               		.loc 1 95 0
 176 0020 BE01      		movw r22,r28
 177 0022 6F5F      		subi r22,-1
 178 0024 7F4F      		sbci r23,-1
 179 0026 80E0      		ldi r24,lo8(SD1)
 180 0028 90E0      		ldi r25,hi8(SD1)
 181 002a 0E94 0000 		call sdStart
 182               	.LVL9:
  96:main.c        **** 
  97:main.c        ****   palSetPadMode(IOPORT2, PEDESTRE, PAL_MODE_INPUT_PULLUP);
 183               		.loc 1 97 0
 184 002e 43E0      		ldi r20,lo8(3)
 185 0030 60E1      		ldi r22,lo8(16)
 186 0032 83E2      		ldi r24,lo8(35)
 187 0034 90E0      		ldi r25,0
 188 0036 0E94 0000 		call _pal_lld_setgroupmode
 189               	.LVL10:
  98:main.c        ****   palSetPadMode(IOPORT2, CARRO_SECUNDARIA, PAL_MODE_INPUT_PULLUP);
 190               		.loc 1 98 0
 191 003a 43E0      		ldi r20,lo8(3)
 192 003c 68E0      		ldi r22,lo8(8)
 193 003e 83E2      		ldi r24,lo8(35)
 194 0040 90E0      		ldi r25,0
 195 0042 0E94 0000 		call _pal_lld_setgroupmode
 196               	.LVL11:
  99:main.c        ****   palSetPadMode(IOPORT2, AMBULANCIA_PRINCIPAL, PAL_MODE_INPUT_PULLUP);
 197               		.loc 1 99 0
 198 0046 43E0      		ldi r20,lo8(3)
 199 0048 64E0      		ldi r22,lo8(4)
 200 004a 83E2      		ldi r24,lo8(35)
 201 004c 90E0      		ldi r25,0
 202 004e 0E94 0000 		call _pal_lld_setgroupmode
 203               	.LVL12:
 100:main.c        ****   palSetPadMode(IOPORT2, AMBULANCIA_SECUNDARIA, PAL_MODE_INPUT_PULLUP);  
 204               		.loc 1 100 0
 205 0052 43E0      		ldi r20,lo8(3)
 206 0054 62E0      		ldi r22,lo8(2)
 207 0056 83E2      		ldi r24,lo8(35)
 208 0058 90E0      		ldi r25,0
 209 005a 0E94 0000 		call _pal_lld_setgroupmode
 210               	.LVL13:
 101:main.c        **** 
 102:main.c        **** 
 103:main.c        ****   thd0 = chThdCreateStatic(wa_WriteEvent, sizeof(wa_WriteEvent), NORMALPRIO, Write_Save_Event, NULL
 211               		.loc 1 103 0
 212 005e 10E0      		ldi r17,0
 213 0060 00E0      		ldi r16,0
 214 0062 20E0      		ldi r18,lo8(gs(Write_Save_Event))
 215 0064 30E0      		ldi r19,hi8(gs(Write_Save_Event))
 216 0066 40E8      		ldi r20,lo8(-128)
 217 0068 63EE      		ldi r22,lo8(-29)
 218 006a 70E0      		ldi r23,0
 219 006c 80E0      		ldi r24,lo8(wa_WriteEvent)
 220 006e 90E0      		ldi r25,hi8(wa_WriteEvent)
 221 0070 0E94 0000 		call chThdCreateStatic
 222               	.LVL14:
 223               	.L5:
 104:main.c        ****   //thd1 = chThdCreateStatic(wa_ReadEvent, sizeof(wa_ReadEvent), NORMALPRIO, Read_Collect_Event, NU
 105:main.c        ****   //thd2 = chThdCreateStatic(wa_ProcessEvent, sizeof(wa_ProcessEvent), NORMALPRIO, ProcessEvent, NU
 106:main.c        **** 
 107:main.c        ****   while (true) 
 108:main.c        ****   {
 109:main.c        ****     chThdSleepMilliseconds(1);
 224               		.loc 1 109 0 discriminator 1
 225 0074 80E1      		ldi r24,lo8(16)
 226 0076 90E0      		ldi r25,0
 227 0078 0E94 0000 		call chThdSleep
 228               	.LVL15:
 229 007c 00C0      		rjmp .L5
 230               		.cfi_endproc
 231               	.LFE242:
 233               		.section	.bss.wa_WriteEvent,"aw",@nobits
 236               	wa_WriteEvent:
 237 0000 0000 0000 		.zero	227
 237      0000 0000 
 237      0000 0000 
 237      0000 0000 
 237      0000 0000 
 238               		.text
 239               	.Letext0:
 240               		.file 3 "/usr/lib/gcc/avr/7.3.0/include/stddef.h"
 241               		.file 4 "/usr/lib/avr/include/stdint.h"
 242               		.file 5 "/home/joao/Documentos/UFPE/Embarcados/ChibiOS/ChibiOS_21.11.3/os/common/ports/AVR/compile
 243               		.file 6 "/home/joao/Documentos/UFPE/Embarcados/ChibiOS/ChibiOS_21.11.3/os/rt/include/chearly.h"
 244               		.file 7 "/home/joao/Documentos/UFPE/Embarcados/ChibiOS/ChibiOS_21.11.3/os/rt/include/chobjects.h"
 245               		.file 8 "/home/joao/Documentos/UFPE/Embarcados/ChibiOS/ChibiOS_21.11.3/os/rt/include/chrfcu.h"
 246               		.file 9 "/home/joao/Documentos/UFPE/Embarcados/ChibiOS/ChibiOS_21.11.3/os/rt/include/chdebug.h"
 247               		.file 10 "/home/joao/Documentos/UFPE/Embarcados/ChibiOS/ChibiOS_21.11.3/os/rt/include/chtime.h"
 248               		.file 11 "/home/joao/Documentos/UFPE/Embarcados/ChibiOS/ChibiOS_21.11.3/os/rt/include/chlists.h"
 249               		.file 12 "/home/joao/Documentos/UFPE/Embarcados/ChibiOS/ChibiOS_21.11.3/os/common/ports/AVR/chcore
 250               		.file 13 "/home/joao/Documentos/UFPE/Embarcados/ChibiOS/ChibiOS_21.11.3/os/rt/include/chsem.h"
 251               		.file 14 "/home/joao/Documentos/UFPE/Embarcados/ChibiOS/ChibiOS_21.11.3/os/rt/include/chmtx.h"
 252               		.file 15 "/home/joao/Documentos/UFPE/Embarcados/ChibiOS/ChibiOS_21.11.3/os/rt/include/chsys.h"
 253               		.file 16 "/home/joao/Documentos/UFPE/Embarcados/ChibiOS/ChibiOS_21.11.3/os/rt/include/chevents.h"
 254               		.file 17 "/home/joao/Documentos/UFPE/Embarcados/ChibiOS/ChibiOS_21.11.3/os/oslib/include/chmemcore
 255               		.file 18 "/home/joao/Documentos/UFPE/Embarcados/ChibiOS/ChibiOS_21.11.3/os/hal/include/hal_queues.
 256               		.file 19 "/home/joao/Documentos/UFPE/Embarcados/ChibiOS/ChibiOS_21.11.3/os/hal/ports/AVR/MEGA/LLD/
 257               		.file 20 "/home/joao/Documentos/UFPE/Embarcados/ChibiOS/ChibiOS_21.11.3/os/hal/include/hal_serial.
 258               		.file 21 "/home/joao/Documentos/UFPE/Embarcados/ChibiOS/ChibiOS_21.11.3/os/hal/ports/AVR/MEGA/LLD/
 259               		.file 22 "/usr/lib/avr/include/stdio.h"
 260               		.file 23 "/home/joao/Documentos/UFPE/Embarcados/ChibiOS/ChibiOS_21.11.3/os/hal/include/hal.h"
 261               		.file 24 "/home/joao/Documentos/UFPE/Embarcados/ChibiOS/ChibiOS_21.11.3/os/rt/include/chthreads.h"
DEFINED SYMBOLS
                            *ABS*:0000000000000000 main.c
     /tmp/ccmRuPlN.s:2      *ABS*:000000000000003e __SP_H__
     /tmp/ccmRuPlN.s:3      *ABS*:000000000000003d __SP_L__
     /tmp/ccmRuPlN.s:4      *ABS*:000000000000003f __SREG__
     /tmp/ccmRuPlN.s:5      *ABS*:0000000000000000 __tmp_reg__
     /tmp/ccmRuPlN.s:6      *ABS*:0000000000000001 __zero_reg__
     /tmp/ccmRuPlN.s:17     .text.Write_Save_Event:0000000000000000 Write_Save_Event
     /tmp/ccmRuPlN.s:137    .text.startup.main:0000000000000000 main
     /tmp/ccmRuPlN.s:236    .bss.wa_WriteEvent:0000000000000000 wa_WriteEvent

UNDEFINED SYMBOLS
ch0
snprintf
SD1
oqWriteTimeout
chThdSleep
halInit
chSysInit
sdStart
_pal_lld_setgroupmode
chThdCreateStatic
__do_copy_data
__do_clear_bss
